target datalayout = "e-m:e-p270:32:32-p271:32:32-p272:64:64-i64:64-i128:128-f80:128-n8:16:32:64-S128"
target triple = "x86_64-pc-linux-gnu"

@.str.2 = private unnamed_addr constant [13 x i8] c"marshal_load\00", align 1
@.str.4 = private unnamed_addr constant [8 x i8] c"Marshal\00", align 1
@.str.5 = private unnamed_addr constant [6 x i8] c"_dump\00", align 1
@s_dump = internal global i64 0, align 8
@.str.6 = private unnamed_addr constant [6 x i8] c"_load\00", align 1
@s_load = internal global i64 0, align 8
@.str.7 = private unnamed_addr constant [13 x i8] c"marshal_dump\00", align 1
@s_mdump = internal global i64 0, align 8
@s_mload = internal global i64 0, align 8
@.str.8 = private unnamed_addr constant [11 x i8] c"_dump_data\00", align 1
@s_dump_data = internal global i64 0, align 8
@.str.9 = private unnamed_addr constant [11 x i8] c"_load_data\00", align 1
@s_load_data = internal global i64 0, align 8
@.str.10 = private unnamed_addr constant [7 x i8] c"_alloc\00", align 1
@s_alloc = internal global i64 0, align 8
@.str.11 = private unnamed_addr constant [5 x i8] c"call\00", align 1
@s_call = internal global i64 0, align 8
@.str.12 = private unnamed_addr constant [8 x i8] c"getbyte\00", align 1
@s_getbyte = internal global i64 0, align 8
@.str.13 = private unnamed_addr constant [5 x i8] c"read\00", align 1
@s_read = internal global i64 0, align 8
@.str.14 = private unnamed_addr constant [6 x i8] c"write\00", align 1
@s_write = internal global i64 0, align 8
@.str.15 = private unnamed_addr constant [8 x i8] c"binmode\00", align 1
@s_binmode = internal global i64 0, align 8
@.str.16 = private unnamed_addr constant [2 x i8] c"E\00", align 1
@s_encoding_short = internal global i64 0, align 8
@.str.17 = private unnamed_addr constant [2 x i8] c"K\00", align 1
@s_ruby2_keywords_flag = internal global i64 0, align 8
@.str.18 = private unnamed_addr constant [5 x i8] c"dump\00", align 1
@.str.19 = private unnamed_addr constant [14 x i8] c"MAJOR_VERSION\00", align 1
@.str.20 = private unnamed_addr constant [14 x i8] c"MINOR_VERSION\00", align 1

; Function Attrs: inlinehint nounwind sspstrong willreturn memory(read) uwtable
define internal i64 @rb_intern_const(ptr noundef nonnull %0) #7 {
  %2 = alloca ptr, align 8
  %3 = alloca i64, align 8
  store ptr %0, ptr %2, align 8, !tbaa !20
  call void @llvm.lifetime.start.p0(i64 8, ptr %3) #23
  %4 = load ptr, ptr %2, align 8, !tbaa !20
  %5 = call i64 @strlen(ptr noundef %4) #27
  store i64 %5, ptr %3, align 8, !tbaa !7
  %6 = load ptr, ptr %2, align 8, !tbaa !20
  %7 = load i64, ptr %3, align 8, !tbaa !7
  %8 = call i64 @rb_intern2(ptr noundef %6, i64 noundef %7)
  call void @llvm.lifetime.end.p0(i64 8, ptr %3) #23
  ret i64 %8
}

; Function Attrs: nounwind sspstrong uwtable
define hidden void @Init_marshal() #0 {
  %1 = alloca i64, align 8
  call void @llvm.lifetime.start.p0(i64 8, ptr %1) #23
  %2 = call i64 @rb_define_module(ptr noundef @.str.4)
  store i64 %2, ptr %1, align 8, !tbaa !7
  %3 = call i64 @rb_intern_const(ptr noundef @.str.5) #27
  store i64 %3, ptr @s_dump, align 8, !tbaa !7
  %4 = call i64 @rb_intern_const(ptr noundef @.str.6) #27
  store i64 %4, ptr @s_load, align 8, !tbaa !7
  %5 = call i64 @rb_intern_const(ptr noundef @.str.7) #27
  store i64 %5, ptr @s_mdump, align 8, !tbaa !7
  %6 = call i64 @rb_intern_const(ptr noundef @.str.2) #27
  store i64 %6, ptr @s_mload, align 8, !tbaa !7
  %7 = call i64 @rb_intern_const(ptr noundef @.str.8) #27
  store i64 %7, ptr @s_dump_data, align 8, !tbaa !7
  %8 = call i64 @rb_intern_const(ptr noundef @.str.9) #27
  store i64 %8, ptr @s_load_data, align 8, !tbaa !7
  %9 = call i64 @rb_intern_const(ptr noundef @.str.10) #27
  store i64 %9, ptr @s_alloc, align 8, !tbaa !7
  %10 = call i64 @rb_intern_const(ptr noundef @.str.11) #27
  store i64 %10, ptr @s_call, align 8, !tbaa !7
  %11 = call i64 @rb_intern_const(ptr noundef @.str.12) #27
  store i64 %11, ptr @s_getbyte, align 8, !tbaa !7
  %12 = call i64 @rb_intern_const(ptr noundef @.str.13) #27
  store i64 %12, ptr @s_read, align 8, !tbaa !7
  %13 = call i64 @rb_intern_const(ptr noundef @.str.14) #27
  store i64 %13, ptr @s_write, align 8, !tbaa !7
  %14 = call i64 @rb_intern_const(ptr noundef @.str.15) #27
  store i64 %14, ptr @s_binmode, align 8, !tbaa !7
  %15 = call i64 @rb_intern_const(ptr noundef @.str.16) #27
  store i64 %15, ptr @s_encoding_short, align 8, !tbaa !7
  %16 = call i64 @rb_intern_const(ptr noundef @.str.17) #27
  store i64 %16, ptr @s_ruby2_keywords_flag, align 8, !tbaa !7
  %17 = load i64, ptr %1, align 8, !tbaa !7
  call void @rb_define_module_function(i64 noundef %17, ptr noundef @.str.18, ptr noundef @marshal_dump, i32 noundef -1)
  %18 = load i64, ptr %1, align 8, !tbaa !7
  call void @rb_define_const(i64 noundef %18, ptr noundef @.str.19, i64 noundef 9)
  %19 = load i64, ptr %1, align 8, !tbaa !7
  call void @rb_define_const(i64 noundef %19, ptr noundef @.str.20, i64 noundef 17)
  call void @llvm.lifetime.end.p0(i64 8, ptr %1) #23
  ret void
}