; Function Attrs: nounwind sspstrong uwtable
define hidden void @Init_marshal() local_unnamed_addr #0 {
  %1 = tail call i64 @rb_define_module(ptr noundef nonnull @.str.4) #22
  %2 = tail call i64 @rb_intern2(ptr noundef nonnull @.str.5, i64 noundef 5) #22
  store i64 %2, ptr @s_dump, align 8, !tbaa !7
  %3 = tail call i64 @rb_intern2(ptr noundef nonnull @.str.6, i64 noundef 5) #22
  store i64 %3, ptr @s_load, align 8, !tbaa !7
  %4 = tail call i64 @rb_intern2(ptr noundef nonnull @.str.7, i64 noundef 12) #22
  store i64 %4, ptr @s_mdump, align 8, !tbaa !7
  %5 = tail call i64 @rb_intern2(ptr noundef nonnull @.str.2, i64 noundef 12) #22
  store i64 %5, ptr @s_mload, align 8, !tbaa !7
  %6 = tail call i64 @rb_intern2(ptr noundef nonnull @.str.8, i64 noundef 10) #22
  store i64 %6, ptr @s_dump_data, align 8, !tbaa !7
  %7 = tail call i64 @rb_intern2(ptr noundef nonnull @.str.9, i64 noundef 10) #22
  store i64 %7, ptr @s_load_data, align 8, !tbaa !7
  %8 = tail call i64 @rb_intern2(ptr noundef nonnull @.str.11, i64 noundef 4) #22
  store i64 %8, ptr @s_call, align 8, !tbaa !7
  %9 = tail call i64 @rb_intern2(ptr noundef nonnull @.str.12, i64 noundef 7) #22
  store i64 %9, ptr @s_getbyte, align 8, !tbaa !7
  %10 = tail call i64 @rb_intern2(ptr noundef nonnull @.str.13, i64 noundef 4) #22
  store i64 %10, ptr @s_read, align 8, !tbaa !7
  %11 = tail call i64 @rb_intern2(ptr noundef nonnull @.str.14, i64 noundef 5) #22
  store i64 %11, ptr @s_write, align 8, !tbaa !7
  %12 = tail call i64 @rb_intern2(ptr noundef nonnull @.str.15, i64 noundef 7) #22
  store i64 %12, ptr @s_binmode, align 8, !tbaa !7
  %13 = tail call i64 @rb_intern2(ptr noundef nonnull @.str.16, i64 noundef 1) #22
  store i64 %13, ptr @s_encoding_short, align 8, !tbaa !7
  %14 = tail call i64 @rb_intern2(ptr noundef nonnull @.str.17, i64 noundef 1) #22
  store i64 %14, ptr @s_ruby2_keywords_flag, align 8, !tbaa !7
  tail call void @rb_define_module_function(i64 noundef %1, ptr noundef nonnull @.str.18, ptr noundef nonnull @marshal_dump, i32 noundef -1) #22
  tail call void @rb_define_const(i64 noundef %1, ptr noundef nonnull @.str.19, i64 noundef 9) #22
  tail call void @rb_define_const(i64 noundef %1, ptr noundef nonnull @.str.20, i64 noundef 17) #22
  ret void
}